target datalayout = "e-m:e-p270:32:32-p271:32:32-p272:64:64-i64:64-i128:128-f80:128-n8:16:32:64-S128"
target triple = "x86_64-pc-linux-gnu"

%struct.H5B_class_t = type { i32, i64, ptr, ptr, ptr, ptr, ptr, ptr, i8, i8, i32, ptr, ptr, ptr, ptr }
%struct.H5O_stab_t = type { i64, i64 }
%struct.H5G_bt_common_t = type { ptr, ptr, i64 }
%struct.H5G_bt_rm_t = type { %struct.H5G_bt_common_t, ptr }

@H5B_SNODE = external global [1 x %struct.H5B_class_t], align 16
@.str = private unnamed_addr constant [101 x i8] c"generated/home/dtcxzyw/WorkSpace/Projects/compilers/llvm-opt-benchmark/bench/hdf5/hdf5/src/H5Gstab.c\00", align 1
@H5E_SYM_g = external global i64, align 8
@H5E_PROTECT_g = external global i64, align 8
@.str.3 = private unnamed_addr constant [36 x i8] c"unable to protect symbol table heap\00", align 1
@.str.6 = private unnamed_addr constant [38 x i8] c"unable to unprotect symbol table heap\00", align 1
@__func__.H5G__stab_delete = private unnamed_addr constant [17 x i8] c"H5G__stab_delete\00", align 1
@H5E_CANTDELETE_g = external global i64, align 8
@.str.14 = private unnamed_addr constant [37 x i8] c"unable to delete symbol table B-tree\00", align 1
@.str.15 = private unnamed_addr constant [35 x i8] c"unable to delete symbol table heap\00", align 1

; Function Attrs: nounwind uwtable
define i32 @H5G__stab_delete(ptr noundef %0, ptr noundef %1) #0 {
  %3 = alloca ptr, align 8
  %4 = alloca ptr, align 8
  %5 = alloca ptr, align 8
  %6 = alloca %struct.H5G_bt_rm_t, align 8
  %7 = alloca i32, align 4
  %8 = alloca i8, align 1
  store ptr %0, ptr %3, align 8
  store ptr %1, ptr %4, align 8
  store ptr null, ptr %5, align 8
  store i32 0, ptr %7, align 4
  store i8 0, ptr %8, align 1
  %9 = load ptr, ptr %3, align 8
  %10 = load ptr, ptr %4, align 8
  %11 = getelementptr inbounds %struct.H5O_stab_t, ptr %10, i32 0, i32 1
  %12 = load i64, ptr %11, align 8
  %13 = call ptr @H5HL_protect(ptr noundef %9, i64 noundef %12, i32 noundef 0)
  store ptr %13, ptr %5, align 8
  %14 = icmp eq ptr null, %13
  br i1 %14, label %15, label %30

15:                                               ; preds = %2
  br label %16

16:                                               ; preds = %15
  br label %17

17:                                               ; preds = %16
  br label %18

18:                                               ; preds = %17
  %19 = load i64, ptr @H5E_SYM_g, align 8
  %20 = load i64, ptr @H5E_PROTECT_g, align 8
  %21 = call i32 (ptr, ptr, i32, i64, i64, ptr, ...) @H5E_printf_stack(ptr noundef @.str, ptr noundef @__func__.H5G__stab_delete, i32 noundef 432, i64 noundef %19, i64 noundef %20, ptr noundef @.str.3)
  br label %22

22:                                               ; preds = %18
  store i8 1, ptr %8, align 1
  %23 = load i8, ptr %8, align 1
  %24 = trunc i8 %23 to i1
  %25 = zext i1 %24 to i8
  store i8 %25, ptr %8, align 1
  br label %26

26:                                               ; preds = %22
  br label %27

27:                                               ; preds = %26
  store i32 -1, ptr %7, align 4
  br label %99

28:                                               ; No predecessors!
  br label %29

29:                                               ; preds = %28
  br label %30

30:                                               ; preds = %29, %2
  %31 = getelementptr inbounds %struct.H5G_bt_rm_t, ptr %6, i32 0, i32 0
  %32 = getelementptr inbounds %struct.H5G_bt_common_t, ptr %31, i32 0, i32 0
  store ptr null, ptr %32, align 8
  %33 = load ptr, ptr %5, align 8
  %34 = getelementptr inbounds %struct.H5G_bt_rm_t, ptr %6, i32 0, i32 0
  %35 = getelementptr inbounds %struct.H5G_bt_common_t, ptr %34, i32 0, i32 1
  store ptr %33, ptr %35, align 8
  %36 = load ptr, ptr %3, align 8
  %37 = load ptr, ptr %4, align 8
  %38 = getelementptr inbounds %struct.H5O_stab_t, ptr %37, i32 0, i32 0
  %39 = load i64, ptr %38, align 8
  %40 = call i32 @H5B_delete(ptr noundef %36, ptr noundef @H5B_SNODE, i64 noundef %39, ptr noundef %6)
  %41 = icmp slt i32 %40, 0
  br i1 %41, label %42, label %57

42:                                               ; preds = %30
  br label %43

43:                                               ; preds = %42
  br label %44

44:                                               ; preds = %43
  br label %45

45:                                               ; preds = %44
  %46 = load i64, ptr @H5E_SYM_g, align 8
  %47 = load i64, ptr @H5E_CANTDELETE_g, align 8
  %48 = call i32 (ptr, ptr, i32, i64, i64, ptr, ...) @H5E_printf_stack(ptr noundef @.str, ptr noundef @__func__.H5G__stab_delete, i32 noundef 440, i64 noundef %46, i64 noundef %47, ptr noundef @.str.14)
  br label %49

49:                                               ; preds = %45
  store i8 1, ptr %8, align 1
  %50 = load i8, ptr %8, align 1
  %51 = trunc i8 %50 to i1
  %52 = zext i1 %51 to i8
  store i8 %52, ptr %8, align 1
  br label %53

53:                                               ; preds = %49
  br label %54

54:                                               ; preds = %53
  store i32 -1, ptr %7, align 4
  br label %99

55:                                               ; No predecessors!
  br label %56

56:                                               ; preds = %55
  br label %57

57:                                               ; preds = %56, %30
  %58 = load ptr, ptr %5, align 8
  %59 = call i32 @H5HL_unprotect(ptr noundef %58)
  %60 = icmp slt i32 %59, 0
  br i1 %60, label %61, label %76

61:                                               ; preds = %57
  br label %62

62:                                               ; preds = %61
  br label %63

63:                                               ; preds = %62
  br label %64

64:                                               ; preds = %63
  %65 = load i64, ptr @H5E_SYM_g, align 8
  %66 = load i64, ptr @H5E_PROTECT_g, align 8
  %67 = call i32 (ptr, ptr, i32, i64, i64, ptr, ...) @H5E_printf_stack(ptr noundef @.str, ptr noundef @__func__.H5G__stab_delete, i32 noundef 444, i64 noundef %65, i64 noundef %66, ptr noundef @.str.6)
  br label %68

68:                                               ; preds = %64
  store i8 1, ptr %8, align 1
  %69 = load i8, ptr %8, align 1
  %70 = trunc i8 %69 to i1
  %71 = zext i1 %70 to i8
  store i8 %71, ptr %8, align 1
  br label %72

72:                                               ; preds = %68
  br label %73

73:                                               ; preds = %72
  store i32 -1, ptr %7, align 4
  br label %99

74:                                               ; No predecessors!
  br label %75

75:                                               ; preds = %74
  br label %76

76:                                               ; preds = %75, %57
  store ptr null, ptr %5, align 8
  %77 = load ptr, ptr %3, align 8
  %78 = load ptr, ptr %4, align 8
  %79 = getelementptr inbounds %struct.H5O_stab_t, ptr %78, i32 0, i32 1
  %80 = load i64, ptr %79, align 8
  %81 = call i32 @H5HL_delete(ptr noundef %77, i64 noundef %80)
  %82 = icmp slt i32 %81, 0
  br i1 %82, label %83, label %98

83:                                               ; preds = %76
  br label %84

84:                                               ; preds = %83
  br label %85

85:                                               ; preds = %84
  br label %86

86:                                               ; preds = %85
  %87 = load i64, ptr @H5E_SYM_g, align 8
  %88 = load i64, ptr @H5E_CANTDELETE_g, align 8
  %89 = call i32 (ptr, ptr, i32, i64, i64, ptr, ...) @H5E_printf_stack(ptr noundef @.str, ptr noundef @__func__.H5G__stab_delete, i32 noundef 449, i64 noundef %87, i64 noundef %88, ptr noundef @.str.15)
  br label %90

90:                                               ; preds = %86
  store i8 1, ptr %8, align 1
  %91 = load i8, ptr %8, align 1
  %92 = trunc i8 %91 to i1
  %93 = zext i1 %92 to i8
  store i8 %93, ptr %8, align 1
  br label %94

94:                                               ; preds = %90
  br label %95

95:                                               ; preds = %94
  store i32 -1, ptr %7, align 4
  br label %99

96:                                               ; No predecessors!
  br label %97

97:                                               ; preds = %96
  br label %98

98:                                               ; preds = %97, %76
  br label %99

99:                                               ; preds = %98, %95, %73, %54, %27
  %100 = load ptr, ptr %5, align 8
  %101 = icmp ne ptr %100, null
  br i1 %101, label %102, label %119

102:                                              ; preds = %99
  %103 = load ptr, ptr %5, align 8
  %104 = call i32 @H5HL_unprotect(ptr noundef %103)
  %105 = icmp slt i32 %104, 0
  br i1 %105, label %106, label %119

106:                                              ; preds = %102
  br label %107

107:                                              ; preds = %106
  br label %108

108:                                              ; preds = %107
  br label %109

109:                                              ; preds = %108
  %110 = load i64, ptr @H5E_SYM_g, align 8
  %111 = load i64, ptr @H5E_PROTECT_g, align 8
  %112 = call i32 (ptr, ptr, i32, i64, i64, ptr, ...) @H5E_printf_stack(ptr noundef @.str, ptr noundef @__func__.H5G__stab_delete, i32 noundef 454, i64 noundef %110, i64 noundef %111, ptr noundef @.str.6)
  br label %113

113:                                              ; preds = %109
  store i8 1, ptr %8, align 1
  %114 = load i8, ptr %8, align 1
  %115 = trunc i8 %114 to i1
  %116 = zext i1 %115 to i8
  store i8 %116, ptr %8, align 1
  br label %117

117:                                              ; preds = %113
  store i32 -1, ptr %7, align 4
  br label %118

118:                                              ; preds = %117
  br label %119

119:                                              ; preds = %118, %102, %99
  %120 = load i32, ptr %7, align 4
  ret i32 %120
}