; Function Attrs: nounwind uwtable
define range(i32 -1, 1) i32 @H5G__stab_delete(ptr noundef %0, ptr nocapture noundef readonly %1) local_unnamed_addr #0 {
  %3 = alloca %struct.H5G_bt_rm_t, align 8
  %4 = getelementptr inbounds i8, ptr %1, i64 8
  %5 = load i64, ptr %4, align 8
  %6 = tail call ptr @H5HL_protect(ptr noundef %0, i64 noundef %5, i32 noundef 0) #6
  %7 = icmp eq ptr %6, null
  br i1 %7, label %8, label %12

8:                                                ; preds = %2
  %9 = load i64, ptr @H5E_SYM_g, align 8
  %10 = load i64, ptr @H5E_PROTECT_g, align 8
  %11 = tail call i32 (ptr, ptr, i32, i64, i64, ptr, ...) @H5E_printf_stack(ptr noundef nonnull @.str, ptr noundef nonnull @__func__.H5G__stab_delete, i32 noundef 432, i64 noundef %9, i64 noundef %10, ptr noundef nonnull @.str.3) #6
  br label %.thread

12:                                               ; preds = %2
  store ptr null, ptr %3, align 8
  %13 = getelementptr inbounds i8, ptr %3, i64 8
  store ptr %6, ptr %13, align 8
  %14 = load i64, ptr %1, align 8
  %15 = call i32 @H5B_delete(ptr noundef %0, ptr noundef nonnull @H5B_SNODE, i64 noundef %14, ptr noundef nonnull %3) #6
  %16 = icmp slt i32 %15, 0
  br i1 %16, label %17, label %21

17:                                               ; preds = %12
  %18 = load i64, ptr @H5E_SYM_g, align 8
  %19 = load i64, ptr @H5E_CANTDELETE_g, align 8
  %20 = call i32 (ptr, ptr, i32, i64, i64, ptr, ...) @H5E_printf_stack(ptr noundef nonnull @.str, ptr noundef nonnull @__func__.H5G__stab_delete, i32 noundef 440, i64 noundef %18, i64 noundef %19, ptr noundef nonnull @.str.14) #6
  br label %36

21:                                               ; preds = %12
  %22 = call i32 @H5HL_unprotect(ptr noundef nonnull %6) #6
  %23 = icmp slt i32 %22, 0
  br i1 %23, label %24, label %28

24:                                               ; preds = %21
  %25 = load i64, ptr @H5E_SYM_g, align 8
  %26 = load i64, ptr @H5E_PROTECT_g, align 8
  %27 = call i32 (ptr, ptr, i32, i64, i64, ptr, ...) @H5E_printf_stack(ptr noundef nonnull @.str, ptr noundef nonnull @__func__.H5G__stab_delete, i32 noundef 444, i64 noundef %25, i64 noundef %26, ptr noundef nonnull @.str.6) #6
  br label %36

28:                                               ; preds = %21
  %29 = load i64, ptr %4, align 8
  %30 = call i32 @H5HL_delete(ptr noundef %0, i64 noundef %29) #6
  %31 = icmp slt i32 %30, 0
  br i1 %31, label %32, label %.thread

32:                                               ; preds = %28
  %33 = load i64, ptr @H5E_SYM_g, align 8
  %34 = load i64, ptr @H5E_CANTDELETE_g, align 8
  %35 = call i32 (ptr, ptr, i32, i64, i64, ptr, ...) @H5E_printf_stack(ptr noundef nonnull @.str, ptr noundef nonnull @__func__.H5G__stab_delete, i32 noundef 449, i64 noundef %33, i64 noundef %34, ptr noundef nonnull @.str.15) #6
  br label %.thread

36:                                               ; preds = %17, %24
  %37 = call i32 @H5HL_unprotect(ptr noundef nonnull %6) #6
  %38 = icmp slt i32 %37, 0
  br i1 %38, label %39, label %.thread

39:                                               ; preds = %36
  %40 = load i64, ptr @H5E_SYM_g, align 8
  %41 = load i64, ptr @H5E_PROTECT_g, align 8
  %42 = call i32 (ptr, ptr, i32, i64, i64, ptr, ...) @H5E_printf_stack(ptr noundef nonnull @.str, ptr noundef nonnull @__func__.H5G__stab_delete, i32 noundef 454, i64 noundef %40, i64 noundef %41, ptr noundef nonnull @.str.6) #6
  br label %.thread

.thread:                                          ; preds = %28, %32, %8, %39, %36
  %.1 = phi i32 [ -1, %39 ], [ -1, %36 ], [ 0, %28 ], [ -1, %32 ], [ -1, %8 ]
  ret i32 %.1
}